; Function Attrs: mustprogress uwtable
define void @_ZN6icu_7525FCDUTF16CollationIterator13resetToOffsetEi(ptr noundef nonnull align 8 dereferenceable(521) %this, i32 noundef %newOffset) unnamed_addr #1 align 2 {
entry:
  tail call void @_ZN6icu_7517CollationIterator5resetEv(ptr noundef nonnull align 8 dereferenceable(389) %this)
  %rawStart = getelementptr inbounds i8, ptr %this, i64 416
  %0 = load ptr, ptr %rawStart, align 8
  %idx.ext = sext i32 %newOffset to i64
  %add.ptr = getelementptr inbounds i16, ptr %0, i64 %idx.ext
  %pos = getelementptr inbounds i8, ptr %this, i64 400
  store ptr %add.ptr, ptr %pos, align 8
  %segmentStart = getelementptr inbounds i8, ptr %this, i64 424
  store ptr %add.ptr, ptr %segmentStart, align 8
  %start = getelementptr inbounds i8, ptr %this, i64 392
  store ptr %add.ptr, ptr %start, align 8
  %rawLimit = getelementptr inbounds i8, ptr %this, i64 440
  %1 = load ptr, ptr %rawLimit, align 8
  %limit = getelementptr inbounds i8, ptr %this, i64 408
  store ptr %1, ptr %limit, align 8
  %checkDir = getelementptr inbounds i8, ptr %this, i64 520
  store i8 1, ptr %checkDir, align 8
  ret void
}